target datalayout = "e-m:e-p270:32:32-p271:32:32-p272:64:64-i64:64-i128:128-f80:128-n8:16:32:64-S128"
target triple = "x86_64-pc-linux-gnu"

%struct.IDAMemRec = type { ptr, double, ptr, ptr, i32, double, double, ptr, i32, i32, ptr, ptr, i32, i32, i32, ptr, ptr, i32, i32, double, double, ptr, i32, i32, i32, i32, ptr, ptr, i32, ptr, ptr, ptr, i32, double, i32, i32, double, ptr, ptr, ptr, i32, ptr, ptr, i32, i32, i32, double, ptr, ptr, ptr, [6 x ptr], [6 x double], [6 x double], [6 x double], [6 x double], [6 x double], ptr, ptr, ptr, ptr, ptr, ptr, ptr, ptr, ptr, ptr, ptr, ptr, ptr, ptr, ptr, ptr, ptr, [6 x ptr], ptr, ptr, ptr, ptr, [6 x ptr], ptr, ptr, ptr, ptr, ptr, ptr, ptr, ptr, ptr, ptr, ptr, ptr, ptr, ptr, ptr, ptr, [6 x ptr], ptr, ptr, ptr, ptr, ptr, double, ptr, ptr, i32, i32, i32, i32, i32, i32, i32, i32, double, double, double, i32, double, i32, i32, i32, i32, i32, double, double, double, double, double, double, double, double, double, double, double, double, double, double, double, double, double, i32, i32, i32, i32, i64, double, double, double, double, double, double, double, double, double, i64, i64, i64, i64, i64, i64, i64, i64, i64, i64, i64, i64, i64, i64, i64, i64, i64, i64, i64, i64, i64, i64, i64, i64, i64, i64, double, i32, i32, i32, i32, i32, i32, i32, i32, i32, i32, i32, i32, i32, ptr, i32, ptr, i32, ptr, i32, ptr, ptr, ptr, ptr, ptr, ptr, i32, i32, ptr, ptr, ptr, ptr, ptr, ptr, ptr, double, i32, i32, ptr, i32, ptr, ptr, double, double, double, ptr, ptr, ptr, double, double, i32, i32, i64, ptr, i32, ptr, [5 x double], ptr, ptr, i32, ptr, i32 }
%struct.IDAadjMemRec = type { double, double, i32, i32, double, i32, double, ptr, i32, ptr, i32, ptr, ptr, i32, i64, i64, ptr, i64, i32, ptr, ptr, ptr, ptr, i32, i32, i32, i32, i32, [6 x ptr], [6 x ptr], [6 x double], ptr, ptr, ptr, ptr }
%struct.IDABMemRec = type { i32, double, ptr, i32, i32, ptr, ptr, ptr, ptr, ptr, ptr, ptr, ptr, ptr, double, ptr, ptr, ptr }

@.str = private unnamed_addr constant [111 x i8] c"generated/home/dtcxzyw/WorkSpace/Projects/compilers/llvm-opt-benchmark/bench/sundials/sundials/src/idas/idaa.c\00", align 1
@.str.1 = private unnamed_addr constant [24 x i8] c"ida_mem = NULL illegal.\00", align 1
@.str.5 = private unnamed_addr constant [51 x i8] c"Illegal attempt to call before calling IDAadjInit.\00", align 1
@.str.12 = private unnamed_addr constant [25 x i8] c"Illegal value for which.\00", align 1
@.str.13 = private unnamed_addr constant [98 x i8] c"At least one backward problem requires sensitivities, but they were not stored for interpolation.\00", align 1
@__func__.IDACalcICBS = private unnamed_addr constant [12 x i8] c"IDACalcICBS\00", align 1
@.str.14 = private unnamed_addr constant [50 x i8] c"Illegal attempt to call before calling IDAInitBS.\00", align 1

; Function Attrs: nounwind uwtable
define i32 @IDACalcICBS(ptr noundef %0, i32 noundef %1, double noundef %2, ptr noundef %3, ptr noundef %4, ptr noundef %5, ptr noundef %6) #0 {
  %8 = alloca i32, align 4
  %9 = alloca ptr, align 8
  %10 = alloca i32, align 4
  %11 = alloca double, align 8
  %12 = alloca ptr, align 8
  %13 = alloca ptr, align 8
  %14 = alloca ptr, align 8
  %15 = alloca ptr, align 8
  %16 = alloca ptr, align 8
  %17 = alloca ptr, align 8
  %18 = alloca ptr, align 8
  %19 = alloca ptr, align 8
  %20 = alloca i32, align 4
  %21 = alloca i32, align 4
  %22 = alloca i32, align 4
  %23 = alloca i32, align 4
  store ptr %0, ptr %9, align 8, !tbaa !3
  store i32 %1, ptr %10, align 4, !tbaa !9
  store double %2, ptr %11, align 8, !tbaa !70
  store ptr %3, ptr %12, align 8, !tbaa !71
  store ptr %4, ptr %13, align 8, !tbaa !71
  store ptr %5, ptr %14, align 8, !tbaa !72
  store ptr %6, ptr %15, align 8, !tbaa !72
  call void @llvm.lifetime.start.p0(i64 8, ptr %16) #6
  call void @llvm.lifetime.start.p0(i64 8, ptr %17) #6
  call void @llvm.lifetime.start.p0(i64 8, ptr %18) #6
  call void @llvm.lifetime.start.p0(i64 8, ptr %19) #6
  call void @llvm.lifetime.start.p0(i64 4, ptr %20) #6
  call void @llvm.lifetime.start.p0(i64 4, ptr %21) #6
  call void @llvm.lifetime.start.p0(i64 4, ptr %22) #6
  %24 = load ptr, ptr %9, align 8, !tbaa !3
  %25 = icmp eq ptr %24, null
  br i1 %25, label %26, label %27

26:                                               ; preds = %7
  call void (ptr, i32, i32, ptr, ptr, ptr, ...) @IDAProcessError(ptr noundef null, i32 noundef -20, i32 noundef 1462, ptr noundef @__func__.IDACalcICBS, ptr noundef @.str, ptr noundef @.str.1)
  store i32 -20, ptr %8, align 4
  store i32 1, ptr %23, align 4
  br label %148

27:                                               ; preds = %7
  %28 = load ptr, ptr %9, align 8, !tbaa !3
  store ptr %28, ptr %16, align 8, !tbaa !11
  %29 = load ptr, ptr %16, align 8, !tbaa !11
  %30 = getelementptr inbounds nuw %struct.IDAMemRec, ptr %29, i32 0, i32 240
  %31 = load i32, ptr %30, align 8, !tbaa !50
  %32 = icmp eq i32 %31, 0
  br i1 %32, label %33, label %35

33:                                               ; preds = %27
  %34 = load ptr, ptr %16, align 8, !tbaa !11
  call void (ptr, i32, i32, ptr, ptr, ptr, ...) @IDAProcessError(ptr noundef %34, i32 noundef -101, i32 noundef 1473, ptr noundef @__func__.IDACalcICBS, ptr noundef @.str, ptr noundef @.str.5)
  store i32 -101, ptr %8, align 4
  store i32 1, ptr %23, align 4
  br label %148

35:                                               ; preds = %27
  %36 = load ptr, ptr %16, align 8, !tbaa !11
  %37 = getelementptr inbounds nuw %struct.IDAMemRec, ptr %36, i32 0, i32 239
  %38 = load ptr, ptr %37, align 8, !tbaa !15
  store ptr %38, ptr %17, align 8, !tbaa !13
  %39 = load ptr, ptr %17, align 8, !tbaa !13
  %40 = getelementptr inbounds nuw %struct.IDAadjMemRec, ptr %39, i32 0, i32 25
  %41 = load i32, ptr %40, align 8, !tbaa !39
  %42 = icmp ne i32 %41, 0
  br i1 %42, label %45, label %43

43:                                               ; preds = %35
  %44 = load ptr, ptr %16, align 8, !tbaa !11
  call void (ptr, i32, i32, ptr, ptr, ptr, ...) @IDAProcessError(ptr noundef %44, i32 noundef -22, i32 noundef 1483, ptr noundef @__func__.IDACalcICBS, ptr noundef @.str, ptr noundef @.str.13)
  store i32 -22, ptr %8, align 4
  store i32 1, ptr %23, align 4
  br label %148

45:                                               ; preds = %35
  %46 = load i32, ptr %10, align 4, !tbaa !9
  %47 = load ptr, ptr %17, align 8, !tbaa !13
  %48 = getelementptr inbounds nuw %struct.IDAadjMemRec, ptr %47, i32 0, i32 8
  %49 = load i32, ptr %48, align 8, !tbaa !44
  %50 = icmp sge i32 %46, %49
  br i1 %50, label %51, label %53

51:                                               ; preds = %45
  %52 = load ptr, ptr %16, align 8, !tbaa !11
  call void (ptr, i32, i32, ptr, ptr, ptr, ...) @IDAProcessError(ptr noundef %52, i32 noundef -22, i32 noundef 1492, ptr noundef @__func__.IDACalcICBS, ptr noundef @.str, ptr noundef @.str.12)
  store i32 -22, ptr %8, align 4
  store i32 1, ptr %23, align 4
  br label %148

53:                                               ; preds = %45
  %54 = load ptr, ptr %17, align 8, !tbaa !13
  %55 = getelementptr inbounds nuw %struct.IDAadjMemRec, ptr %54, i32 0, i32 7
  %56 = load ptr, ptr %55, align 8, !tbaa !42
  store ptr %56, ptr %18, align 8, !tbaa !99
  br label %57

57:                                               ; preds = %67, %53
  %58 = load ptr, ptr %18, align 8, !tbaa !99
  %59 = icmp ne ptr %58, null
  br i1 %59, label %60, label %71

60:                                               ; preds = %57
  %61 = load i32, ptr %10, align 4, !tbaa !9
  %62 = load ptr, ptr %18, align 8, !tbaa !99
  %63 = getelementptr inbounds nuw %struct.IDABMemRec, ptr %62, i32 0, i32 0
  %64 = load i32, ptr %63, align 8, !tbaa !156
  %65 = icmp eq i32 %61, %64
  br i1 %65, label %66, label %67

66:                                               ; preds = %60
  br label %71

67:                                               ; preds = %60
  %68 = load ptr, ptr %18, align 8, !tbaa !99
  %69 = getelementptr inbounds nuw %struct.IDABMemRec, ptr %68, i32 0, i32 17
  %70 = load ptr, ptr %69, align 8, !tbaa !100
  store ptr %70, ptr %18, align 8, !tbaa !99
  br label %57

71:                                               ; preds = %66, %57
  %72 = load ptr, ptr %18, align 8, !tbaa !99
  %73 = getelementptr inbounds nuw %struct.IDABMemRec, ptr %72, i32 0, i32 2
  %74 = load ptr, ptr %73, align 8, !tbaa !102
  store ptr %74, ptr %19, align 8, !tbaa !3
  %75 = load ptr, ptr %18, align 8, !tbaa !99
  %76 = getelementptr inbounds nuw %struct.IDABMemRec, ptr %75, i32 0, i32 3
  %77 = load i32, ptr %76, align 8, !tbaa !164
  %78 = icmp ne i32 %77, 0
  br i1 %78, label %81, label %79

79:                                               ; preds = %71
  %80 = load ptr, ptr %16, align 8, !tbaa !11
  call void (ptr, i32, i32, ptr, ptr, ptr, ...) @IDAProcessError(ptr noundef %80, i32 noundef -22, i32 noundef 1511, ptr noundef @__func__.IDACalcICBS, ptr noundef @.str, ptr noundef @.str.14)
  store i32 -22, ptr %8, align 4
  store i32 1, ptr %23, align 4
  br label %148

81:                                               ; preds = %71
  %82 = load ptr, ptr %18, align 8, !tbaa !99
  %83 = load ptr, ptr %17, align 8, !tbaa !13
  %84 = getelementptr inbounds nuw %struct.IDAadjMemRec, ptr %83, i32 0, i32 9
  store ptr %82, ptr %84, align 8, !tbaa !43
  %85 = load ptr, ptr %12, align 8, !tbaa !71
  %86 = load ptr, ptr %17, align 8, !tbaa !13
  %87 = getelementptr inbounds nuw %struct.IDAadjMemRec, ptr %86, i32 0, i32 31
  %88 = load ptr, ptr %87, align 8, !tbaa !58
  call void @N_VScale(double noundef 1.000000e+00, ptr noundef %85, ptr noundef %88)
  %89 = load ptr, ptr %13, align 8, !tbaa !71
  %90 = load ptr, ptr %17, align 8, !tbaa !13
  %91 = getelementptr inbounds nuw %struct.IDAadjMemRec, ptr %90, i32 0, i32 32
  %92 = load ptr, ptr %91, align 8, !tbaa !59
  call void @N_VScale(double noundef 1.000000e+00, ptr noundef %89, ptr noundef %92)
  store i32 0, ptr %21, align 4, !tbaa !9
  br label %93

93:                                               ; preds = %106, %81
  %94 = load i32, ptr %21, align 4, !tbaa !9
  %95 = load ptr, ptr %16, align 8, !tbaa !11
  %96 = getelementptr inbounds nuw %struct.IDAMemRec, ptr %95, i32 0, i32 24
  %97 = load i32, ptr %96, align 8, !tbaa !60
  %98 = icmp slt i32 %94, %97
  br i1 %98, label %99, label %109

99:                                               ; preds = %93
  %100 = load ptr, ptr %16, align 8, !tbaa !11
  %101 = getelementptr inbounds nuw %struct.IDAMemRec, ptr %100, i32 0, i32 234
  %102 = load ptr, ptr %101, align 8, !tbaa !73
  %103 = load i32, ptr %21, align 4, !tbaa !9
  %104 = sext i32 %103 to i64
  %105 = getelementptr inbounds double, ptr %102, i64 %104
  store double 1.000000e+00, ptr %105, align 8, !tbaa !70
  br label %106

106:                                              ; preds = %99
  %107 = load i32, ptr %21, align 4, !tbaa !9
  %108 = add nsw i32 %107, 1
  store i32 %108, ptr %21, align 4, !tbaa !9
  br label %93

109:                                              ; preds = %93
  %110 = load ptr, ptr %16, align 8, !tbaa !11
  %111 = getelementptr inbounds nuw %struct.IDAMemRec, ptr %110, i32 0, i32 24
  %112 = load i32, ptr %111, align 8, !tbaa !60
  %113 = load ptr, ptr %16, align 8, !tbaa !11
  %114 = getelementptr inbounds nuw %struct.IDAMemRec, ptr %113, i32 0, i32 234
  %115 = load ptr, ptr %114, align 8, !tbaa !73
  %116 = load ptr, ptr %14, align 8, !tbaa !72
  %117 = load ptr, ptr %17, align 8, !tbaa !13
  %118 = getelementptr inbounds nuw %struct.IDAadjMemRec, ptr %117, i32 0, i32 33
  %119 = load ptr, ptr %118, align 8, !tbaa !61
  %120 = call i32 @N_VScaleVectorArray(i32 noundef %112, ptr noundef %115, ptr noundef %116, ptr noundef %119)
  store i32 %120, ptr %22, align 4, !tbaa !9
  %121 = load i32, ptr %22, align 4, !tbaa !9
  %122 = icmp ne i32 %121, 0
  br i1 %122, label %123, label %124

123:                                              ; preds = %109
  store i32 -28, ptr %8, align 4
  store i32 1, ptr %23, align 4
  br label %148

124:                                              ; preds = %109
  %125 = load ptr, ptr %16, align 8, !tbaa !11
  %126 = getelementptr inbounds nuw %struct.IDAMemRec, ptr %125, i32 0, i32 24
  %127 = load i32, ptr %126, align 8, !tbaa !60
  %128 = load ptr, ptr %16, align 8, !tbaa !11
  %129 = getelementptr inbounds nuw %struct.IDAMemRec, ptr %128, i32 0, i32 234
  %130 = load ptr, ptr %129, align 8, !tbaa !73
  %131 = load ptr, ptr %15, align 8, !tbaa !72
  %132 = load ptr, ptr %17, align 8, !tbaa !13
  %133 = getelementptr inbounds nuw %struct.IDAadjMemRec, ptr %132, i32 0, i32 34
  %134 = load ptr, ptr %133, align 8, !tbaa !62
  %135 = call i32 @N_VScaleVectorArray(i32 noundef %127, ptr noundef %130, ptr noundef %131, ptr noundef %134)
  store i32 %135, ptr %22, align 4, !tbaa !9
  %136 = load i32, ptr %22, align 4, !tbaa !9
  %137 = icmp ne i32 %136, 0
  br i1 %137, label %138, label %139

138:                                              ; preds = %124
  store i32 -28, ptr %8, align 4
  store i32 1, ptr %23, align 4
  br label %148

139:                                              ; preds = %124
  %140 = load ptr, ptr %17, align 8, !tbaa !13
  %141 = getelementptr inbounds nuw %struct.IDAadjMemRec, ptr %140, i32 0, i32 27
  store i32 1, ptr %141, align 8, !tbaa !41
  %142 = load ptr, ptr %19, align 8, !tbaa !3
  %143 = load double, ptr %11, align 8, !tbaa !70
  %144 = call i32 @IDACalcIC(ptr noundef %142, i32 noundef 1, double noundef %143)
  store i32 %144, ptr %20, align 4, !tbaa !9
  %145 = load ptr, ptr %17, align 8, !tbaa !13
  %146 = getelementptr inbounds nuw %struct.IDAadjMemRec, ptr %145, i32 0, i32 27
  store i32 0, ptr %146, align 8, !tbaa !41
  %147 = load i32, ptr %20, align 4, !tbaa !9
  store i32 %147, ptr %8, align 4
  store i32 1, ptr %23, align 4
  br label %148

148:                                              ; preds = %139, %138, %123, %79, %51, %43, %33, %26
  call void @llvm.lifetime.end.p0(i64 4, ptr %22) #6
  call void @llvm.lifetime.end.p0(i64 4, ptr %21) #6
  call void @llvm.lifetime.end.p0(i64 4, ptr %20) #6
  call void @llvm.lifetime.end.p0(i64 8, ptr %19) #6
  call void @llvm.lifetime.end.p0(i64 8, ptr %18) #6
  call void @llvm.lifetime.end.p0(i64 8, ptr %17) #6
  call void @llvm.lifetime.end.p0(i64 8, ptr %16) #6
  %149 = load i32, ptr %8, align 4
  ret i32 %149
}