; Function Attrs: nounwind uwtable
define i32 @IDACalcICBS(ptr noundef %0, i32 noundef %1, double noundef %2, ptr noundef %3, ptr noundef %4, ptr noundef %5, ptr noundef %6) local_unnamed_addr #0 {
  %8 = icmp eq ptr %0, null
  br i1 %8, label %9, label %10

9:                                                ; preds = %7
  tail call void (ptr, i32, i32, ptr, ptr, ptr, ...) @IDAProcessError(ptr noundef null, i32 noundef -20, i32 noundef 1462, ptr noundef nonnull @__func__.IDACalcICBS, ptr noundef nonnull @.str, ptr noundef nonnull @.str.1) #9
  br label %62

10:                                               ; preds = %7
  %11 = getelementptr inbounds nuw i8, ptr %0, i64 2120
  %12 = load i32, ptr %11, align 8, !tbaa !46
  %13 = icmp eq i32 %12, 0
  br i1 %13, label %14, label %15

14:                                               ; preds = %10
  tail call void (ptr, i32, i32, ptr, ptr, ptr, ...) @IDAProcessError(ptr noundef nonnull %0, i32 noundef -101, i32 noundef 1473, ptr noundef nonnull @__func__.IDACalcICBS, ptr noundef nonnull @.str, ptr noundef nonnull @.str.5) #9
  br label %62

15:                                               ; preds = %10
  %16 = getelementptr inbounds nuw i8, ptr %0, i64 2112
  %17 = load ptr, ptr %16, align 8, !tbaa !3
  %18 = getelementptr inbounds nuw i8, ptr %17, i64 184
  %19 = load i32, ptr %18, align 8, !tbaa !35
  %.not = icmp eq i32 %19, 0
  br i1 %.not, label %20, label %21

20:                                               ; preds = %15
  tail call void (ptr, i32, i32, ptr, ptr, ptr, ...) @IDAProcessError(ptr noundef nonnull %0, i32 noundef -22, i32 noundef 1483, ptr noundef nonnull @__func__.IDACalcICBS, ptr noundef nonnull @.str, ptr noundef nonnull @.str.13) #9
  br label %62

21:                                               ; preds = %15
  %22 = getelementptr inbounds nuw i8, ptr %17, i64 56
  %23 = load i32, ptr %22, align 8, !tbaa !40
  %.not49 = icmp slt i32 %1, %23
  br i1 %.not49, label %25, label %24

24:                                               ; preds = %21
  tail call void (ptr, i32, i32, ptr, ptr, ptr, ...) @IDAProcessError(ptr noundef nonnull %0, i32 noundef -22, i32 noundef 1492, ptr noundef nonnull @__func__.IDACalcICBS, ptr noundef nonnull @.str, ptr noundef nonnull @.str.12) #9
  br label %62

25:                                               ; preds = %21
  %26 = getelementptr inbounds nuw i8, ptr %17, i64 48
  %.04555 = load ptr, ptr %26, align 8, !tbaa !88
  %.not5056 = icmp eq ptr %.04555, null
  br i1 %.not5056, label %._crit_edge, label %.lr.ph

.lr.ph:                                           ; preds = %25, %29
  %.04557 = phi ptr [ %.045, %29 ], [ %.04555, %25 ]
  %27 = load i32, ptr %.04557, align 8, !tbaa !143
  %28 = icmp eq i32 %1, %27
  br i1 %28, label %._crit_edge, label %29

29:                                               ; preds = %.lr.ph
  %30 = getelementptr inbounds nuw i8, ptr %.04557, i64 128
  %.045 = load ptr, ptr %30, align 8, !tbaa !88
  %.not50 = icmp eq ptr %.045, null
  br i1 %.not50, label %._crit_edge, label %.lr.ph

._crit_edge:                                      ; preds = %29, %.lr.ph, %25
  %.045.lcssa = phi ptr [ null, %25 ], [ %.04557, %.lr.ph ], [ null, %29 ]
  %31 = getelementptr inbounds nuw i8, ptr %.045.lcssa, i64 16
  %32 = load ptr, ptr %31, align 8, !tbaa !89
  %33 = getelementptr inbounds nuw i8, ptr %.045.lcssa, i64 24
  %34 = load i32, ptr %33, align 8, !tbaa !146
  %.not51 = icmp eq i32 %34, 0
  br i1 %.not51, label %35, label %36

35:                                               ; preds = %._crit_edge
  tail call void (ptr, i32, i32, ptr, ptr, ptr, ...) @IDAProcessError(ptr noundef nonnull %0, i32 noundef -22, i32 noundef 1511, ptr noundef nonnull @__func__.IDACalcICBS, ptr noundef nonnull @.str, ptr noundef nonnull @.str.14) #9
  br label %62

36:                                               ; preds = %._crit_edge
  %37 = getelementptr inbounds nuw i8, ptr %17, i64 64
  store ptr %.045.lcssa, ptr %37, align 8, !tbaa !39
  %38 = getelementptr inbounds nuw i8, ptr %17, i64 344
  %39 = load ptr, ptr %38, align 8, !tbaa !48
  tail call void @N_VScale(double noundef 1.000000e+00, ptr noundef %3, ptr noundef %39) #9
  %40 = getelementptr inbounds nuw i8, ptr %17, i64 352
  %41 = load ptr, ptr %40, align 8, !tbaa !49
  tail call void @N_VScale(double noundef 1.000000e+00, ptr noundef %4, ptr noundef %41) #9
  %42 = getelementptr inbounds nuw i8, ptr %0, i64 160
  %43 = load i32, ptr %42, align 8, !tbaa !50
  %44 = icmp sgt i32 %43, 0
  %45 = getelementptr inbounds nuw i8, ptr %0, i64 2040
  %46 = load ptr, ptr %45, align 8, !tbaa !64
  br i1 %44, label %.lr.ph62, label %._crit_edge63

.lr.ph62:                                         ; preds = %36
  %wide.trip.count = zext nneg i32 %43 to i64
  br label %47

47:                                               ; preds = %.lr.ph62, %47
  %indvars.iv = phi i64 [ 0, %.lr.ph62 ], [ %indvars.iv.next, %47 ]
  %48 = getelementptr inbounds nuw double, ptr %46, i64 %indvars.iv
  store double 1.000000e+00, ptr %48, align 8, !tbaa !65
  %indvars.iv.next = add nuw nsw i64 %indvars.iv, 1
  %exitcond.not = icmp eq i64 %indvars.iv.next, %wide.trip.count
  br i1 %exitcond.not, label %._crit_edge63, label %47

._crit_edge63:                                    ; preds = %47, %36
  %49 = getelementptr inbounds nuw i8, ptr %17, i64 360
  %50 = load ptr, ptr %49, align 8, !tbaa !51
  %51 = tail call i32 @N_VScaleVectorArray(i32 noundef %43, ptr noundef %46, ptr noundef %5, ptr noundef %50) #9
  %.not52 = icmp eq i32 %51, 0
  br i1 %.not52, label %52, label %62

52:                                               ; preds = %._crit_edge63
  %53 = getelementptr inbounds nuw i8, ptr %0, i64 2040
  %54 = load i32, ptr %42, align 8, !tbaa !50
  %55 = load ptr, ptr %53, align 8, !tbaa !64
  %56 = getelementptr inbounds nuw i8, ptr %17, i64 368
  %57 = load ptr, ptr %56, align 8, !tbaa !52
  %58 = tail call i32 @N_VScaleVectorArray(i32 noundef %54, ptr noundef %55, ptr noundef %6, ptr noundef %57) #9
  %.not53 = icmp eq i32 %58, 0
  br i1 %.not53, label %59, label %62

59:                                               ; preds = %52
  %60 = getelementptr inbounds nuw i8, ptr %17, i64 192
  store i32 1, ptr %60, align 8, !tbaa !37
  %61 = tail call i32 @IDACalcIC(ptr noundef %32, i32 noundef 1, double noundef %2) #9
  store i32 0, ptr %60, align 8, !tbaa !37
  br label %62

62:                                               ; preds = %52, %._crit_edge63, %59, %35, %24, %20, %14, %9
  %.044 = phi i32 [ -20, %9 ], [ -101, %14 ], [ -22, %24 ], [ %61, %59 ], [ -22, %35 ], [ -22, %20 ], [ -28, %._crit_edge63 ], [ -28, %52 ]
  ret i32 %.044
}